; ModuleID = '8/1250.cpp'
source_filename = "8/1250.cpp"
target datalayout = "e-m:e-p270:32:32-p271:32:32-p272:64:64-i64:64-f80:128-n8:16:32:64-S128"
target triple = "x86_64-pc-linux-gnu"

%"class.std::ios_base::Init" = type { i8 }
%"class.std::basic_istream" = type { i32 (...)**, i64, %"class.std::basic_ios" }
%"class.std::basic_ios" = type { %"class.std::ios_base", %"class.std::basic_ostream"*, i8, i8, %"class.std::basic_streambuf"*, %"class.std::ctype"*, %"class.std::num_put"*, %"class.std::num_get"* }
%"class.std::ios_base" = type { i32 (...)**, i64, i64, i32, i32, i32, %"struct.std::ios_base::_Callback_list"*, %"struct.std::ios_base::_Words", [8 x %"struct.std::ios_base::_Words"], i32, %"struct.std::ios_base::_Words"*, %"class.std::locale" }
%"struct.std::ios_base::_Callback_list" = type { %"struct.std::ios_base::_Callback_list"*, void (i32, %"class.std::ios_base"*, i32)*, i32, i32 }
%"struct.std::ios_base::_Words" = type { i8*, i64 }
%"class.std::locale" = type { %"class.std::locale::_Impl"* }
%"class.std::locale::_Impl" = type { i32, %"class.std::locale::facet"**, i64, %"class.std::locale::facet"**, i8** }
%"class.std::locale::facet" = type <{ i32 (...)**, i32, [4 x i8] }>
%"class.std::basic_ostream" = type { i32 (...)**, %"class.std::basic_ios" }
%"class.std::basic_streambuf" = type { i32 (...)**, i8*, i8*, i8*, i8*, i8*, i8*, %"class.std::locale" }
%"class.std::ctype" = type <{ %"class.std::locale::facet.base", [4 x i8], %struct.__locale_struct*, i8, [7 x i8], i32*, i32*, i16*, i8, [256 x i8], [256 x i8], i8, [6 x i8] }>
%"class.std::locale::facet.base" = type <{ i32 (...)**, i32 }>
%struct.__locale_struct = type { [13 x %struct.__locale_data*], i16*, i32*, i32*, [13 x i8*] }
%struct.__locale_data = type opaque
%"class.std::num_put" = type { %"class.std::locale::facet.base", [4 x i8] }
%"class.std::num_get" = type { %"class.std::locale::facet.base", [4 x i8] }

@_ZStL8__ioinit = internal global %"class.std::ios_base::Init" zeroinitializer, align 1
@__dso_handle = external hidden global i8
@n = dso_local global i32 0, align 4
@m = dso_local global i32 0, align 4
@i = dso_local global i32 0, align 4
@j = dso_local global i32 0, align 4
@a = dso_local global [10000 x i32] zeroinitializer, align 16
@_ZSt3cin = external dso_local global %"class.std::basic_istream", align 8
@_ZSt4cout = external dso_local global %"class.std::basic_ostream", align 8
@llvm.global_ctors = appending global [1 x { i32, void ()*, i8* }] [{ i32, void ()*, i8* } { i32 65535, void ()* @_GLOBAL__sub_I_1250.cpp, i8* null }]

; Function Attrs: noinline uwtable
define internal void @__cxx_global_var_init() #0 section ".text.startup" {
  call void @_ZNSt8ios_base4InitC1Ev(%"class.std::ios_base::Init"* @_ZStL8__ioinit)
  %1 = call i32 @__cxa_atexit(void (i8*)* bitcast (void (%"class.std::ios_base::Init"*)* @_ZNSt8ios_base4InitD1Ev to void (i8*)*), i8* getelementptr inbounds (%"class.std::ios_base::Init", %"class.std::ios_base::Init"* @_ZStL8__ioinit, i32 0, i32 0), i8* @__dso_handle) #3
  ret void
}

declare dso_local void @_ZNSt8ios_base4InitC1Ev(%"class.std::ios_base::Init"*) unnamed_addr #1

; Function Attrs: nounwind
declare dso_local void @_ZNSt8ios_base4InitD1Ev(%"class.std::ios_base::Init"*) unnamed_addr #2

; Function Attrs: nounwind
declare dso_local i32 @__cxa_atexit(void (i8*)*, i8*, i8*) #3

; Function Attrs: noinline uwtable
define dso_local void @_Z5inputv() #0 {
  %1 = call dereferenceable(280) %"class.std::basic_istream"* @_ZNSirsERi(%"class.std::basic_istream"* @_ZSt3cin, i32* dereferenceable(4) @n)
  %2 = call dereferenceable(280) %"class.std::basic_istream"* @_ZNSirsERi(%"class.std::basic_istream"* %1, i32* dereferenceable(4) @m)
  store i32 0, i32* @i, align 4
  br label %3

3:                                                ; preds = %14, %0
  %4 = load i32, i32* @i, align 4
  %5 = load i32, i32* @n, align 4
  %6 = load i32, i32* @m, align 4
  %7 = add nsw i32 %5, %6
  %8 = icmp slt i32 %4, %7
  br i1 %8, label %9, label %17

9:                                                ; preds = %3
  %10 = load i32, i32* @i, align 4
  %11 = sext i32 %10 to i64
  %12 = getelementptr inbounds [10000 x i32], [10000 x i32]* @a, i64 0, i64 %11
  %13 = call dereferenceable(280) %"class.std::basic_istream"* @_ZNSirsERi(%"class.std::basic_istream"* @_ZSt3cin, i32* dereferenceable(4) %12)
  br label %14

14:                                               ; preds = %9
  %15 = load i32, i32* @i, align 4
  %16 = add nsw i32 %15, 1
  store i32 %16, i32* @i, align 4
  br label %3

17:                                               ; preds = %3
  ret void
}

declare dso_local dereferenceable(280) %"class.std::basic_istream"* @_ZNSirsERi(%"class.std::basic_istream"*, i32* dereferenceable(4)) #1

; Function Attrs: noinline uwtable
define dso_local void @_Z5fsortv() #0 {
  %1 = load i32, i32* @n, align 4
  %2 = sext i32 %1 to i64
  %3 = getelementptr inbounds i32, i32* getelementptr inbounds ([10000 x i32], [10000 x i32]* @a, i64 0, i64 0), i64 %2
  call void @_Z4sortPiS_(i32* getelementptr inbounds ([10000 x i32], [10000 x i32]* @a, i64 0, i64 0), i32* %3)
  %4 = load i32, i32* @n, align 4
  %5 = sext i32 %4 to i64
  %6 = getelementptr inbounds i32, i32* getelementptr inbounds ([10000 x i32], [10000 x i32]* @a, i64 0, i64 0), i64 %5
  %7 = load i32, i32* @n, align 4
  %8 = sext i32 %7 to i64
  %9 = getelementptr inbounds i32, i32* getelementptr inbounds ([10000 x i32], [10000 x i32]* @a, i64 0, i64 0), i64 %8
  %10 = load i32, i32* @m, align 4
  %11 = sext i32 %10 to i64
  %12 = getelementptr inbounds i32, i32* %9, i64 %11
  call void @_Z4sortPiS_(i32* %6, i32* %12)
  ret void
}

declare dso_local void @_Z4sortPiS_(i32*, i32*) #1

; Function Attrs: noinline uwtable
define dso_local void @_Z5printv() #0 {
  %1 = load i32, i32* getelementptr inbounds ([10000 x i32], [10000 x i32]* @a, i64 0, i64 0), align 16
  %2 = call dereferenceable(272) %"class.std::basic_ostream"* @_ZNSolsEi(%"class.std::basic_ostream"* @_ZSt4cout, i32 %1)
  store i32 1, i32* @i, align 4
  br label %3

3:                                                ; preds = %16, %0
  %4 = load i32, i32* @i, align 4
  %5 = load i32, i32* @n, align 4
  %6 = load i32, i32* @m, align 4
  %7 = add nsw i32 %5, %6
  %8 = icmp slt i32 %4, %7
  br i1 %8, label %9, label %19

9:                                                ; preds = %3
  %10 = call dereferenceable(272) %"class.std::basic_ostream"* @_ZStlsISt11char_traitsIcEERSt13basic_ostreamIcT_ES5_c(%"class.std::basic_ostream"* dereferenceable(272) @_ZSt4cout, i8 signext 32)
  %11 = load i32, i32* @i, align 4
  %12 = sext i32 %11 to i64
  %13 = getelementptr inbounds [10000 x i32], [10000 x i32]* @a, i64 0, i64 %12
  %14 = load i32, i32* %13, align 4
  %15 = call dereferenceable(272) %"class.std::basic_ostream"* @_ZNSolsEi(%"class.std::basic_ostream"* %10, i32 %14)
  br label %16

16:                                               ; preds = %9
  %17 = load i32, i32* @i, align 4
  %18 = add nsw i32 %17, 1
  store i32 %18, i32* @i, align 4
  br label %3

19:                                               ; preds = %3
  ret void
}

declare dso_local dereferenceable(272) %"class.std::basic_ostream"* @_ZNSolsEi(%"class.std::basic_ostream"*, i32) #1

declare dso_local dereferenceable(272) %"class.std::basic_ostream"* @_ZStlsISt11char_traitsIcEERSt13basic_ostreamIcT_ES5_c(%"class.std::basic_ostream"* dereferenceable(272), i8 signext) #1

; Function Attrs: noinline norecurse uwtable
define dso_local i32 @main() #4 {
  %1 = alloca i32, align 4
  store i32 0, i32* %1, align 4
  call void @_Z5inputv()
  call void @_Z5fsortv()
  call void @_Z5printv()
  ret i32 0
}

; Function Attrs: noinline uwtable
define internal void @_GLOBAL__sub_I_1250.cpp() #0 section ".text.startup" {
  call void @__cxx_global_var_init()
  ret void
}


!llvm.module.flags = !{!0}
!llvm.ident = !{!1}

!0 = !{i32 1, !"wchar_size", i32 4}
!1 = !{!"clang version 10.0.0-4ubuntu1 "}
