; ModuleID = 'source-C-CXX/7/1250.cpp'
source_filename = "source-C-CXX/7/1250.cpp"
target datalayout = "e-m:e-p270:32:32-p271:32:32-p272:64:64-i64:64-f80:128-n8:16:32:64-S128"
target triple = "x86_64-pc-linux-gnu"

%"class.std::ios_base::Init" = type { i8 }
%"class.std::basic_istream" = type { i32 (...)**, i64, %"class.std::basic_ios" }
%"class.std::basic_ios" = type { %"class.std::ios_base", %"class.std::basic_ostream"*, i8, i8, %"class.std::basic_streambuf"*, %"class.std::ctype"*, %"class.std::num_put"*, %"class.std::num_get"* }
%"class.std::ios_base" = type { i32 (...)**, i64, i64, i32, i32, i32, %"struct.std::ios_base::_Callback_list"*, %"struct.std::ios_base::_Words", [8 x %"struct.std::ios_base::_Words"], i32, %"struct.std::ios_base::_Words"*, %"class.std::locale" }
%"struct.std::ios_base::_Callback_list" = type { %"struct.std::ios_base::_Callback_list"*, void (i32, %"class.std::ios_base"*, i32)*, i32, i32 }
%"struct.std::ios_base::_Words" = type { i8*, i64 }
%"class.std::locale" = type { %"class.std::locale::_Impl"* }
%"class.std::locale::_Impl" = type { i32, %"class.std::locale::facet"**, i64, %"class.std::locale::facet"**, i8** }
%"class.std::locale::facet" = type <{ i32 (...)**, i32, [4 x i8] }>
%"class.std::basic_ostream" = type { i32 (...)**, %"class.std::basic_ios" }
%"class.std::basic_streambuf" = type { i32 (...)**, i8*, i8*, i8*, i8*, i8*, i8*, %"class.std::locale" }
%"class.std::ctype" = type <{ %"class.std::locale::facet.base", [4 x i8], %struct.__locale_struct*, i8, [7 x i8], i32*, i32*, i16*, i8, [256 x i8], [256 x i8], i8, [6 x i8] }>
%"class.std::locale::facet.base" = type <{ i32 (...)**, i32 }>
%struct.__locale_struct = type { [13 x %struct.__locale_data*], i16*, i32*, i32*, [13 x i8*] }
%struct.__locale_data = type opaque
%"class.std::num_put" = type { %"class.std::locale::facet.base", [4 x i8] }
%"class.std::num_get" = type { %"class.std::locale::facet.base", [4 x i8] }

@_ZStL8__ioinit = internal global %"class.std::ios_base::Init" zeroinitializer, align 1
@__dso_handle = external hidden global i8
@n = dso_local global i32 0, align 4
@m = dso_local global i32 0, align 4
@i = dso_local local_unnamed_addr global i32 0, align 4
@j = dso_local local_unnamed_addr global i32 0, align 4
@a = dso_local global [10000 x i32] zeroinitializer, align 16
@_ZSt3cin = external global %"class.std::basic_istream", align 8
@_ZSt4cout = external global %"class.std::basic_ostream", align 8
@llvm.global_ctors = appending global [1 x { i32, void ()*, i8* }] [{ i32, void ()*, i8* } { i32 65535, void ()* @_GLOBAL__sub_I_1250.cpp, i8* null }]

declare void @_ZNSt8ios_base4InitC1Ev(%"class.std::ios_base::Init"* nonnull align 1 dereferenceable(1)) unnamed_addr #0

; Function Attrs: nounwind
declare void @_ZNSt8ios_base4InitD1Ev(%"class.std::ios_base::Init"* nonnull align 1 dereferenceable(1)) unnamed_addr #1

; Function Attrs: nofree nounwind
declare i32 @__cxa_atexit(void (i8*)*, i8*, i8*) local_unnamed_addr #2

; Function Attrs: mustprogress sspstrong uwtable
define dso_local void @_Z5inputv() local_unnamed_addr #3 {
  %1 = tail call nonnull align 8 dereferenceable(16) %"class.std::basic_istream"* @_ZNSirsERi(%"class.std::basic_istream"* nonnull align 8 dereferenceable(16) @_ZSt3cin, i32* nonnull align 4 dereferenceable(4) @n)
  %2 = tail call nonnull align 8 dereferenceable(16) %"class.std::basic_istream"* @_ZNSirsERi(%"class.std::basic_istream"* nonnull align 8 dereferenceable(16) %1, i32* nonnull align 4 dereferenceable(4) @m)
  store i32 0, i32* @i, align 4, !tbaa !5
  %3 = load i32, i32* @n, align 4, !tbaa !5
  %4 = load i32, i32* @m, align 4, !tbaa !5
  %5 = add nsw i32 %4, %3
  %6 = icmp sgt i32 %5, 0
  br i1 %6, label %7, label %18

7:                                                ; preds = %0, %7
  %8 = phi i32 [ %13, %7 ], [ 0, %0 ]
  %9 = sext i32 %8 to i64
  %10 = getelementptr inbounds [10000 x i32], [10000 x i32]* @a, i64 0, i64 %9
  %11 = tail call nonnull align 8 dereferenceable(16) %"class.std::basic_istream"* @_ZNSirsERi(%"class.std::basic_istream"* nonnull align 8 dereferenceable(16) @_ZSt3cin, i32* nonnull align 4 dereferenceable(4) %10)
  %12 = load i32, i32* @i, align 4, !tbaa !5
  %13 = add nsw i32 %12, 1
  store i32 %13, i32* @i, align 4, !tbaa !5
  %14 = load i32, i32* @n, align 4, !tbaa !5
  %15 = load i32, i32* @m, align 4, !tbaa !5
  %16 = add nsw i32 %15, %14
  %17 = icmp slt i32 %13, %16
  br i1 %17, label %7, label %18, !llvm.loop !9

18:                                               ; preds = %7, %0
  ret void
}

declare nonnull align 8 dereferenceable(16) %"class.std::basic_istream"* @_ZNSirsERi(%"class.std::basic_istream"* nonnull align 8 dereferenceable(16), i32* nonnull align 4 dereferenceable(4)) local_unnamed_addr #0

; Function Attrs: mustprogress sspstrong uwtable
define dso_local void @_Z5fsortv() local_unnamed_addr #3 {
  %1 = load i32, i32* @n, align 4, !tbaa !5
  %2 = sext i32 %1 to i64
  %3 = getelementptr inbounds [10000 x i32], [10000 x i32]* @a, i64 0, i64 %2
  tail call void @_Z4sortPiS_(i32* getelementptr inbounds ([10000 x i32], [10000 x i32]* @a, i64 0, i64 0), i32* nonnull %3)
  %4 = load i32, i32* @n, align 4, !tbaa !5
  %5 = sext i32 %4 to i64
  %6 = getelementptr inbounds [10000 x i32], [10000 x i32]* @a, i64 0, i64 %5
  %7 = load i32, i32* @m, align 4, !tbaa !5
  %8 = sext i32 %7 to i64
  %9 = getelementptr inbounds i32, i32* %6, i64 %8
  tail call void @_Z4sortPiS_(i32* nonnull %6, i32* nonnull %9)
  ret void
}

declare void @_Z4sortPiS_(i32*, i32*) local_unnamed_addr #0

; Function Attrs: mustprogress sspstrong uwtable
define dso_local void @_Z5printv() local_unnamed_addr #3 {
  %1 = alloca i8, align 1
  %2 = load i32, i32* getelementptr inbounds ([10000 x i32], [10000 x i32]* @a, i64 0, i64 0), align 16, !tbaa !5
  %3 = tail call nonnull align 8 dereferenceable(8) %"class.std::basic_ostream"* @_ZNSolsEi(%"class.std::basic_ostream"* nonnull align 8 dereferenceable(8) @_ZSt4cout, i32 %2)
  store i32 1, i32* @i, align 4, !tbaa !5
  %4 = load i32, i32* @n, align 4, !tbaa !5
  %5 = load i32, i32* @m, align 4, !tbaa !5
  %6 = add nsw i32 %5, %4
  %7 = icmp sgt i32 %6, 1
  br i1 %7, label %8, label %21

8:                                                ; preds = %0, %8
  call void @llvm.lifetime.start.p0i8(i64 1, i8* nonnull %1)
  store i8 32, i8* %1, align 1, !tbaa !11
  %9 = call nonnull align 8 dereferenceable(8) %"class.std::basic_ostream"* @_ZSt16__ostream_insertIcSt11char_traitsIcEERSt13basic_ostreamIT_T0_ES6_PKS3_l(%"class.std::basic_ostream"* nonnull align 8 dereferenceable(8) @_ZSt4cout, i8* nonnull %1, i64 1)
  call void @llvm.lifetime.end.p0i8(i64 1, i8* nonnull %1)
  %10 = load i32, i32* @i, align 4, !tbaa !5
  %11 = sext i32 %10 to i64
  %12 = getelementptr inbounds [10000 x i32], [10000 x i32]* @a, i64 0, i64 %11
  %13 = load i32, i32* %12, align 4, !tbaa !5
  %14 = call nonnull align 8 dereferenceable(8) %"class.std::basic_ostream"* @_ZNSolsEi(%"class.std::basic_ostream"* nonnull align 8 dereferenceable(8) %9, i32 %13)
  %15 = load i32, i32* @i, align 4, !tbaa !5
  %16 = add nsw i32 %15, 1
  store i32 %16, i32* @i, align 4, !tbaa !5
  %17 = load i32, i32* @n, align 4, !tbaa !5
  %18 = load i32, i32* @m, align 4, !tbaa !5
  %19 = add nsw i32 %18, %17
  %20 = icmp slt i32 %16, %19
  br i1 %20, label %8, label %21, !llvm.loop !12

21:                                               ; preds = %8, %0
  ret void
}

declare nonnull align 8 dereferenceable(8) %"class.std::basic_ostream"* @_ZNSolsEi(%"class.std::basic_ostream"* nonnull align 8 dereferenceable(8), i32) local_unnamed_addr #0

; Function Attrs: mustprogress norecurse sspstrong uwtable
define dso_local i32 @main() local_unnamed_addr #4 {
  %1 = alloca i8, align 1
  %2 = tail call nonnull align 8 dereferenceable(16) %"class.std::basic_istream"* @_ZNSirsERi(%"class.std::basic_istream"* nonnull align 8 dereferenceable(16) @_ZSt3cin, i32* nonnull align 4 dereferenceable(4) @n)
  %3 = tail call nonnull align 8 dereferenceable(16) %"class.std::basic_istream"* @_ZNSirsERi(%"class.std::basic_istream"* nonnull align 8 dereferenceable(16) %2, i32* nonnull align 4 dereferenceable(4) @m)
  store i32 0, i32* @i, align 4, !tbaa !5
  %4 = load i32, i32* @n, align 4, !tbaa !5
  %5 = load i32, i32* @m, align 4, !tbaa !5
  %6 = add nsw i32 %5, %4
  %7 = icmp sgt i32 %6, 0
  br i1 %7, label %8, label %19

8:                                                ; preds = %0, %8
  %9 = phi i32 [ %14, %8 ], [ 0, %0 ]
  %10 = sext i32 %9 to i64
  %11 = getelementptr inbounds [10000 x i32], [10000 x i32]* @a, i64 0, i64 %10
  %12 = tail call nonnull align 8 dereferenceable(16) %"class.std::basic_istream"* @_ZNSirsERi(%"class.std::basic_istream"* nonnull align 8 dereferenceable(16) @_ZSt3cin, i32* nonnull align 4 dereferenceable(4) %11)
  %13 = load i32, i32* @i, align 4, !tbaa !5
  %14 = add nsw i32 %13, 1
  store i32 %14, i32* @i, align 4, !tbaa !5
  %15 = load i32, i32* @n, align 4, !tbaa !5
  %16 = load i32, i32* @m, align 4, !tbaa !5
  %17 = add nsw i32 %16, %15
  %18 = icmp slt i32 %14, %17
  br i1 %18, label %8, label %19, !llvm.loop !9

19:                                               ; preds = %8, %0
  %20 = phi i32 [ %4, %0 ], [ %15, %8 ]
  %21 = sext i32 %20 to i64
  %22 = getelementptr inbounds [10000 x i32], [10000 x i32]* @a, i64 0, i64 %21
  tail call void @_Z4sortPiS_(i32* getelementptr inbounds ([10000 x i32], [10000 x i32]* @a, i64 0, i64 0), i32* nonnull %22)
  %23 = load i32, i32* @n, align 4, !tbaa !5
  %24 = sext i32 %23 to i64
  %25 = getelementptr inbounds [10000 x i32], [10000 x i32]* @a, i64 0, i64 %24
  %26 = load i32, i32* @m, align 4, !tbaa !5
  %27 = sext i32 %26 to i64
  %28 = getelementptr inbounds i32, i32* %25, i64 %27
  tail call void @_Z4sortPiS_(i32* nonnull %25, i32* nonnull %28)
  %29 = load i32, i32* getelementptr inbounds ([10000 x i32], [10000 x i32]* @a, i64 0, i64 0), align 16, !tbaa !5
  %30 = tail call nonnull align 8 dereferenceable(8) %"class.std::basic_ostream"* @_ZNSolsEi(%"class.std::basic_ostream"* nonnull align 8 dereferenceable(8) @_ZSt4cout, i32 %29)
  store i32 1, i32* @i, align 4, !tbaa !5
  %31 = load i32, i32* @n, align 4, !tbaa !5
  %32 = load i32, i32* @m, align 4, !tbaa !5
  %33 = add nsw i32 %32, %31
  %34 = icmp sgt i32 %33, 1
  br i1 %34, label %35, label %48

35:                                               ; preds = %19, %35
  call void @llvm.lifetime.start.p0i8(i64 1, i8* nonnull %1)
  store i8 32, i8* %1, align 1, !tbaa !11
  %36 = call nonnull align 8 dereferenceable(8) %"class.std::basic_ostream"* @_ZSt16__ostream_insertIcSt11char_traitsIcEERSt13basic_ostreamIT_T0_ES6_PKS3_l(%"class.std::basic_ostream"* nonnull align 8 dereferenceable(8) @_ZSt4cout, i8* nonnull %1, i64 1)
  call void @llvm.lifetime.end.p0i8(i64 1, i8* nonnull %1)
  %37 = load i32, i32* @i, align 4, !tbaa !5
  %38 = sext i32 %37 to i64
  %39 = getelementptr inbounds [10000 x i32], [10000 x i32]* @a, i64 0, i64 %38
  %40 = load i32, i32* %39, align 4, !tbaa !5
  %41 = call nonnull align 8 dereferenceable(8) %"class.std::basic_ostream"* @_ZNSolsEi(%"class.std::basic_ostream"* nonnull align 8 dereferenceable(8) %36, i32 %40)
  %42 = load i32, i32* @i, align 4, !tbaa !5
  %43 = add nsw i32 %42, 1
  store i32 %43, i32* @i, align 4, !tbaa !5
  %44 = load i32, i32* @n, align 4, !tbaa !5
  %45 = load i32, i32* @m, align 4, !tbaa !5
  %46 = add nsw i32 %45, %44
  %47 = icmp slt i32 %43, %46
  br i1 %47, label %35, label %48, !llvm.loop !12

48:                                               ; preds = %35, %19
  ret i32 0
}

declare nonnull align 8 dereferenceable(8) %"class.std::basic_ostream"* @_ZSt16__ostream_insertIcSt11char_traitsIcEERSt13basic_ostreamIT_T0_ES6_PKS3_l(%"class.std::basic_ostream"* nonnull align 8 dereferenceable(8), i8*, i64) local_unnamed_addr #0

; Function Attrs: sspstrong uwtable
define internal void @_GLOBAL__sub_I_1250.cpp() #5 section ".text.startup" {
  tail call void @_ZNSt8ios_base4InitC1Ev(%"class.std::ios_base::Init"* nonnull align 1 dereferenceable(1) @_ZStL8__ioinit)
  %1 = tail call i32 @__cxa_atexit(void (i8*)* bitcast (void (%"class.std::ios_base::Init"*)* @_ZNSt8ios_base4InitD1Ev to void (i8*)*), i8* getelementptr inbounds (%"class.std::ios_base::Init", %"class.std::ios_base::Init"* @_ZStL8__ioinit, i64 0, i32 0), i8* nonnull @__dso_handle) #7
  ret void
}

; Function Attrs: argmemonly nofree nosync nounwind willreturn
declare void @llvm.lifetime.start.p0i8(i64 immarg, i8* nocapture) #6

; Function Attrs: argmemonly nofree nosync nounwind willreturn
declare void @llvm.lifetime.end.p0i8(i64 immarg, i8* nocapture) #6


!llvm.module.flags = !{!0, !1, !2, !3}
!llvm.ident = !{!4}

!0 = !{i32 1, !"wchar_size", i32 4}
!1 = !{i32 7, !"PIC Level", i32 2}
!2 = !{i32 7, !"PIE Level", i32 2}
!3 = !{i32 7, !"uwtable", i32 1}
!4 = !{!"clang version 13.0.0"}
!5 = !{!6, !6, i64 0}
!6 = !{!"int", !7, i64 0}
!7 = !{!"omnipotent char", !8, i64 0}
!8 = !{!"Simple C++ TBAA"}
!9 = distinct !{!9, !10}
!10 = !{!"llvm.loop.mustprogress"}
!11 = !{!7, !7, i64 0}
!12 = distinct !{!12, !10}
